target datalayout = "e-m:e-p270:32:32-p271:32:32-p272:64:64-i64:64-i128:128-f80:128-n8:16:32:64-S128"
target triple = "x86_64-pc-linux-gnu"

%struct.rb_data_type_struct = type { ptr, %struct.anon, ptr, ptr, i64 }
%struct.anon = type { ptr, ptr, ptr, ptr, [1 x ptr] }
%struct.rb_io_buffer = type { ptr, i64, i32, i64 }

@rb_io_buffer_type = internal constant %struct.rb_data_type_struct { ptr @.str.108, %struct.anon { ptr @rb_io_buffer_type_mark, ptr @rb_io_buffer_type_free, ptr @rb_io_buffer_type_size, ptr null, [1 x ptr] zeroinitializer }, ptr null, ptr null, i64 35 }, align 8
@rb_eArgError = external global i64, align 8
@.str.131 = private unnamed_addr constant [26 x i8] c"Offset can't be negative!\00", align 1
@.str.132 = private unnamed_addr constant [26 x i8] c"Length can't be negative!\00", align 1
@.str.134 = private unnamed_addr constant [49 x i8] c"The given offset is bigger than the buffer size!\00", align 1

; Function Attrs: inlinehint nounwind sspstrong willreturn memory(none) uwtable
define internal i64 @rbimpl_fix2long_by_idiv(i64 noundef %0) #11 {
  %2 = alloca i64, align 8
  %3 = alloca i64, align 8
  %4 = alloca i64, align 8
  %5 = alloca i64, align 8
  store i64 %0, ptr %2, align 8, !tbaa !20
  call void @llvm.lifetime.start.p0(i64 8, ptr %3) #22
  %6 = load i64, ptr %2, align 8, !tbaa !20
  %7 = sub i64 %6, 1
  store i64 %7, ptr %3, align 8, !tbaa !20
  call void @llvm.lifetime.start.p0(i64 8, ptr %4) #22
  %8 = load i64, ptr %3, align 8, !tbaa !20
  %9 = sdiv i64 %8, 2
  store i64 %9, ptr %4, align 8, !tbaa !20
  call void @llvm.lifetime.start.p0(i64 8, ptr %5) #22
  %10 = load i64, ptr %4, align 8, !tbaa !20
  store i64 %10, ptr %5, align 8, !tbaa !20
  %11 = load i64, ptr %5, align 8, !tbaa !20
  call void @llvm.lifetime.end.p0(i64 8, ptr %5) #22
  call void @llvm.lifetime.end.p0(i64 8, ptr %4) #22
  call void @llvm.lifetime.end.p0(i64 8, ptr %3) #22
  ret i64 %11
}

; Function Attrs: inlinehint nounwind sspstrong willreturn memory(none) uwtable
define internal i64 @rbimpl_fix2long_by_shift(i64 noundef %0) #11 {
  %2 = alloca i64, align 8
  %3 = alloca i64, align 8
  %4 = alloca i64, align 8
  %5 = alloca i64, align 8
  store i64 %0, ptr %2, align 8, !tbaa !20
  call void @llvm.lifetime.start.p0(i64 8, ptr %3) #22
  %6 = load i64, ptr %2, align 8, !tbaa !20
  store i64 %6, ptr %3, align 8, !tbaa !20
  call void @llvm.lifetime.start.p0(i64 8, ptr %4) #22
  %7 = load i64, ptr %3, align 8, !tbaa !20
  %8 = ashr i64 %7, 1
  store i64 %8, ptr %4, align 8, !tbaa !20
  call void @llvm.lifetime.start.p0(i64 8, ptr %5) #22
  %9 = load i64, ptr %4, align 8, !tbaa !20
  store i64 %9, ptr %5, align 8, !tbaa !20
  %10 = load i64, ptr %5, align 8, !tbaa !20
  call void @llvm.lifetime.end.p0(i64 8, ptr %5) #22
  call void @llvm.lifetime.end.p0(i64 8, ptr %4) #22
  call void @llvm.lifetime.end.p0(i64 8, ptr %3) #22
  ret i64 %10
}

; Function Attrs: inlinehint nounwind sspstrong willreturn memory(none) uwtable
define internal zeroext i1 @rbimpl_right_shift_is_arithmetic_p() #11 {
  ret i1 true
}

; Function Attrs: inlinehint nounwind sspstrong willreturn memory(none) uwtable
define internal i64 @rb_fix2long(i64 noundef %0) #11 {
  %2 = alloca i64, align 8
  %3 = alloca i64, align 8
  store i64 %0, ptr %3, align 8, !tbaa !20
  %4 = call zeroext i1 @rbimpl_right_shift_is_arithmetic_p() #24
  br i1 %4, label %5, label %8

5:                                                ; preds = %1
  %6 = load i64, ptr %3, align 8, !tbaa !20
  %7 = call i64 @rbimpl_fix2long_by_shift(i64 noundef %6) #24
  store i64 %7, ptr %2, align 8
  br label %11

8:                                                ; preds = %1
  %9 = load i64, ptr %3, align 8, !tbaa !20
  %10 = call i64 @rbimpl_fix2long_by_idiv(i64 noundef %9) #24
  store i64 %10, ptr %2, align 8
  br label %11

11:                                               ; preds = %8, %5
  %12 = load i64, ptr %2, align 8
  ret i64 %12
}

; Function Attrs: inlinehint nounwind sspstrong willreturn memory(none) uwtable
define internal zeroext i1 @RB_FIXNUM_P(i64 noundef %0) #11 {
  %2 = alloca i64, align 8
  store i64 %0, ptr %2, align 8, !tbaa !20
  %3 = load i64, ptr %2, align 8, !tbaa !20
  %4 = and i64 %3, 1
  %5 = icmp ne i64 %4, 0
  ret i1 %5
}

; Function Attrs: inlinehint nounwind sspstrong uwtable
define internal i64 @rb_num2ull_inline(i64 noundef %0) #3 {
  %2 = alloca i64, align 8
  %3 = alloca i64, align 8
  store i64 %0, ptr %3, align 8, !tbaa !20
  %4 = load i64, ptr %3, align 8, !tbaa !20
  %5 = call zeroext i1 @RB_FIXNUM_P(i64 noundef %4) #24
  br i1 %5, label %6, label %9

6:                                                ; preds = %1
  %7 = load i64, ptr %3, align 8, !tbaa !20
  %8 = call i64 @rb_fix2long(i64 noundef %7) #24
  store i64 %8, ptr %2, align 8
  br label %12

9:                                                ; preds = %1
  %10 = load i64, ptr %3, align 8, !tbaa !20
  %11 = call i64 @rb_num2ull(i64 noundef %10)
  store i64 %11, ptr %2, align 8
  br label %12

12:                                               ; preds = %9, %6
  %13 = load i64, ptr %2, align 8
  ret i64 %13
}

; Function Attrs: inlinehint nounwind sspstrong uwtable
define internal i64 @io_buffer_default_length(ptr noundef %0, i64 noundef %1) #3 {
  %3 = alloca ptr, align 8
  %4 = alloca i64, align 8
  store ptr %0, ptr %3, align 8, !tbaa !11
  store i64 %1, ptr %4, align 8, !tbaa !20
  %5 = load i64, ptr %4, align 8, !tbaa !20
  %6 = load ptr, ptr %3, align 8, !tbaa !11
  %7 = getelementptr inbounds nuw %struct.rb_io_buffer, ptr %6, i32 0, i32 1
  %8 = load i64, ptr %7, align 8, !tbaa !19
  %9 = icmp ugt i64 %5, %8
  br i1 %9, label %10, label %12

10:                                               ; preds = %2
  %11 = load i64, ptr @rb_eArgError, align 8, !tbaa !20
  call void (i64, ptr, ...) @rb_raise(i64 noundef %11, ptr noundef @.str.134) #26
  unreachable

12:                                               ; preds = %2
  %13 = load ptr, ptr %3, align 8, !tbaa !11
  %14 = getelementptr inbounds nuw %struct.rb_io_buffer, ptr %13, i32 0, i32 1
  %15 = load i64, ptr %14, align 8, !tbaa !19
  %16 = load i64, ptr %4, align 8, !tbaa !20
  %17 = sub i64 %15, %16
  ret i64 %17
}

; Function Attrs: inlinehint nounwind sspstrong uwtable
define internal i64 @io_buffer_extract_length(i64 noundef %0) #3 {
  %2 = alloca i64, align 8
  store i64 %0, ptr %2, align 8, !tbaa !20
  %3 = load i64, ptr %2, align 8, !tbaa !20
  %4 = call i32 @rb_int_negative_p(i64 noundef %3)
  %5 = icmp ne i32 %4, 0
  br i1 %5, label %6, label %8

6:                                                ; preds = %1
  %7 = load i64, ptr @rb_eArgError, align 8, !tbaa !20
  call void (i64, ptr, ...) @rb_raise(i64 noundef %7, ptr noundef @.str.132) #26
  unreachable

8:                                                ; preds = %1
  %9 = load i64, ptr %2, align 8, !tbaa !20
  %10 = call i64 @rb_num2ull_inline(i64 noundef %9)
  ret i64 %10
}

; Function Attrs: inlinehint nounwind sspstrong uwtable
define internal i64 @io_buffer_extract_offset(i64 noundef %0) #3 {
  %2 = alloca i64, align 8
  store i64 %0, ptr %2, align 8, !tbaa !20
  %3 = load i64, ptr %2, align 8, !tbaa !20
  %4 = call i32 @rb_int_negative_p(i64 noundef %3)
  %5 = icmp ne i32 %4, 0
  br i1 %5, label %6, label %8

6:                                                ; preds = %1
  %7 = load i64, ptr @rb_eArgError, align 8, !tbaa !20
  call void (i64, ptr, ...) @rb_raise(i64 noundef %7, ptr noundef @.str.131) #26
  unreachable

8:                                                ; preds = %1
  %9 = load i64, ptr %2, align 8, !tbaa !20
  %10 = call i64 @rb_num2ull_inline(i64 noundef %9)
  ret i64 %10
}

; Function Attrs: inlinehint nounwind sspstrong willreturn memory(none) uwtable
define internal zeroext i1 @RB_NIL_P(i64 noundef %0) #11 {
  %2 = alloca i64, align 8
  store i64 %0, ptr %2, align 8, !tbaa !20
  %3 = load i64, ptr %2, align 8, !tbaa !20
  %4 = icmp eq i64 %3, 4
  ret i1 %4
}

; Function Attrs: inlinehint nounwind sspstrong uwtable
define internal ptr @io_buffer_extract_length_offset(i64 noundef %0, i32 noundef %1, ptr noundef %2, ptr noundef %3, ptr noundef %4) #3 {
  %6 = alloca i64, align 8
  %7 = alloca i32, align 4
  %8 = alloca ptr, align 8
  %9 = alloca ptr, align 8
  %10 = alloca ptr, align 8
  %11 = alloca ptr, align 8
  store i64 %0, ptr %6, align 8, !tbaa !20
  store i32 %1, ptr %7, align 4, !tbaa !32
  store ptr %2, ptr %8, align 8, !tbaa !33
  store ptr %3, ptr %9, align 8, !tbaa !33
  store ptr %4, ptr %10, align 8, !tbaa !33
  call void @llvm.lifetime.start.p0(i64 8, ptr %11) #22
  store ptr null, ptr %11, align 8, !tbaa !11
  %12 = load i64, ptr %6, align 8, !tbaa !20
  %13 = call ptr @rb_check_typeddata(i64 noundef %12, ptr noundef @rb_io_buffer_type)
  store ptr %13, ptr %11, align 8, !tbaa !11
  %14 = load i32, ptr %7, align 4, !tbaa !32
  %15 = icmp sge i32 %14, 2
  br i1 %15, label %16, label %27

16:                                               ; preds = %5
  %17 = load ptr, ptr %8, align 8, !tbaa !33
  %18 = getelementptr i64, ptr %17, i64 1
  %19 = load i64, ptr %18, align 8, !tbaa !20
  %20 = call zeroext i1 @RB_NIL_P(i64 noundef %19) #24
  br i1 %20, label %27, label %21

21:                                               ; preds = %16
  %22 = load ptr, ptr %8, align 8, !tbaa !33
  %23 = getelementptr i64, ptr %22, i64 1
  %24 = load i64, ptr %23, align 8, !tbaa !20
  %25 = call i64 @io_buffer_extract_offset(i64 noundef %24)
  %26 = load ptr, ptr %10, align 8, !tbaa !33
  store i64 %25, ptr %26, align 8, !tbaa !20
  br label %29

27:                                               ; preds = %16, %5
  %28 = load ptr, ptr %10, align 8, !tbaa !33
  store i64 0, ptr %28, align 8, !tbaa !20
  br label %29

29:                                               ; preds = %27, %21
  %30 = load i32, ptr %7, align 4, !tbaa !32
  %31 = icmp sge i32 %30, 1
  br i1 %31, label %32, label %43

32:                                               ; preds = %29
  %33 = load ptr, ptr %8, align 8, !tbaa !33
  %34 = getelementptr i64, ptr %33, i64 0
  %35 = load i64, ptr %34, align 8, !tbaa !20
  %36 = call zeroext i1 @RB_NIL_P(i64 noundef %35) #24
  br i1 %36, label %43, label %37

37:                                               ; preds = %32
  %38 = load ptr, ptr %8, align 8, !tbaa !33
  %39 = getelementptr i64, ptr %38, i64 0
  %40 = load i64, ptr %39, align 8, !tbaa !20
  %41 = call i64 @io_buffer_extract_length(i64 noundef %40)
  %42 = load ptr, ptr %9, align 8, !tbaa !33
  store i64 %41, ptr %42, align 8, !tbaa !20
  br label %49

43:                                               ; preds = %32, %29
  %44 = load ptr, ptr %11, align 8, !tbaa !11
  %45 = load ptr, ptr %10, align 8, !tbaa !33
  %46 = load i64, ptr %45, align 8, !tbaa !20
  %47 = call i64 @io_buffer_default_length(ptr noundef %44, i64 noundef %46)
  %48 = load ptr, ptr %9, align 8, !tbaa !33
  store i64 %47, ptr %48, align 8, !tbaa !20
  br label %49

49:                                               ; preds = %43, %37
  %50 = load ptr, ptr %11, align 8, !tbaa !11
  call void @llvm.lifetime.end.p0(i64 8, ptr %11) #22
  ret ptr %50
}