; Function Attrs: inlinehint nounwind sspstrong uwtable
define internal fastcc void @io_buffer_extract_length_offset(i64 noundef %0, i32 noundef %1, ptr noundef readonly captures(none) %2, ptr noundef nonnull writeonly captures(none) %3, ptr noundef nonnull writeonly captures(none) %4) unnamed_addr #18 {
  %6 = tail call ptr @rb_check_typeddata(i64 noundef %0, ptr noundef nonnull @rb_io_buffer_type) #25
  %7 = icmp sgt i32 %1, 1
  br i1 %7, label %8, label %io_buffer_extract_offset.exit

8:                                                ; preds = %5
  %9 = getelementptr i8, ptr %2, i64 8
  %10 = load i64, ptr %9, align 8, !tbaa !22
  %11 = icmp eq i64 %10, 4
  br i1 %11, label %io_buffer_extract_offset.exit.thread, label %12

12:                                               ; preds = %8
  %13 = tail call i32 @rb_int_negative_p(i64 noundef %10) #25
  %.not.i = icmp eq i32 %13, 0
  br i1 %.not.i, label %16, label %14

14:                                               ; preds = %12
  %15 = load i64, ptr @rb_eArgError, align 8, !tbaa !22
  tail call void (i64, ptr, ...) @rb_raise(i64 noundef %15, ptr noundef nonnull @.str.131) #26
  unreachable

16:                                               ; preds = %12
  %17 = and i64 %10, 1
  %.not.i.i = icmp eq i64 %17, 0
  br i1 %.not.i.i, label %20, label %18

18:                                               ; preds = %16
  %19 = ashr i64 %10, 1
  br label %io_buffer_extract_offset.exit.thread

20:                                               ; preds = %16
  %21 = tail call i64 @rb_num2ull(i64 noundef %10) #25
  br label %io_buffer_extract_offset.exit.thread

io_buffer_extract_offset.exit.thread:             ; preds = %20, %18, %8
  %storemerge.ph = phi i64 [ %21, %20 ], [ %19, %18 ], [ 0, %8 ]
  store i64 %storemerge.ph, ptr %4, align 8, !tbaa !22
  br label %24

io_buffer_extract_offset.exit:                    ; preds = %5
  store i64 0, ptr %4, align 8, !tbaa !22
  %22 = icmp eq i32 %1, 1
  br i1 %22, label %24, label %.thread

.thread:                                          ; preds = %io_buffer_extract_offset.exit
  %23 = getelementptr i8, ptr %6, i64 8
  %.val21 = load i64, ptr %23, align 8, !tbaa !16
  br label %io_buffer_default_length.exit

24:                                               ; preds = %io_buffer_extract_offset.exit.thread, %io_buffer_extract_offset.exit
  %storemerge19 = phi i64 [ %storemerge.ph, %io_buffer_extract_offset.exit.thread ], [ 0, %io_buffer_extract_offset.exit ]
  %25 = load i64, ptr %2, align 8, !tbaa !22
  %26 = icmp eq i64 %25, 4
  br i1 %26, label %37, label %27

27:                                               ; preds = %24
  %28 = tail call i32 @rb_int_negative_p(i64 noundef %25) #25
  %.not.i14 = icmp eq i32 %28, 0
  br i1 %.not.i14, label %31, label %29

29:                                               ; preds = %27
  %30 = load i64, ptr @rb_eArgError, align 8, !tbaa !22
  tail call void (i64, ptr, ...) @rb_raise(i64 noundef %30, ptr noundef nonnull @.str.132) #26
  unreachable

31:                                               ; preds = %27
  %32 = and i64 %25, 1
  %.not.i.i15 = icmp eq i64 %32, 0
  br i1 %.not.i.i15, label %35, label %33

33:                                               ; preds = %31
  %34 = ashr i64 %25, 1
  br label %io_buffer_extract_length.exit

35:                                               ; preds = %31
  %36 = tail call i64 @rb_num2ull(i64 noundef %25) #25
  br label %io_buffer_extract_length.exit

37:                                               ; preds = %24
  %38 = getelementptr i8, ptr %6, i64 8
  %.val = load i64, ptr %38, align 8, !tbaa !16
  %39 = icmp ugt i64 %storemerge19, %.val
  br i1 %39, label %40, label %io_buffer_default_length.exit

40:                                               ; preds = %37
  %41 = load i64, ptr @rb_eArgError, align 8, !tbaa !22
  tail call void (i64, ptr, ...) @rb_raise(i64 noundef %41, ptr noundef nonnull @.str.134) #26
  unreachable

io_buffer_default_length.exit:                    ; preds = %.thread, %37
  %.val23 = phi i64 [ %.val21, %.thread ], [ %.val, %37 ]
  %storemerge1822 = phi i64 [ 0, %.thread ], [ %storemerge19, %37 ]
  %42 = sub nuw i64 %.val23, %storemerge1822
  br label %io_buffer_extract_length.exit

io_buffer_extract_length.exit:                    ; preds = %35, %33, %io_buffer_default_length.exit
  %storemerge13 = phi i64 [ %42, %io_buffer_default_length.exit ], [ %34, %33 ], [ %36, %35 ]
  store i64 %storemerge13, ptr %3, align 8, !tbaa !22
  ret void
}